target datalayout = "e-m:e-p270:32:32-p271:32:32-p272:64:64-i64:64-i128:128-f80:128-n8:16:32:64-S128"
target triple = "x86_64-pc-linux-gnu"

%struct.UBiDi = type { ptr, ptr, i32, i32, i32, i32, i32, i32, i32, i32, i32, ptr, ptr, ptr, ptr, ptr, ptr, i8, i8, ptr, ptr, i8, i32, i32, i8, i8, i8, ptr, i32, ptr, i32, ptr, i32, i32, i32, i32, i32, ptr, [10 x %struct.Para], i32, ptr, [1 x %struct.Run], i32, ptr, [5 x %struct.Isolate], %struct.InsertPoints, i32, ptr, ptr }
%struct.Para = type { i32, i32 }
%struct.Run = type { i32, i32, i32 }
%struct.Isolate = type { i32, i32, i32, i16 }
%struct.InsertPoints = type { i32, i32, i32, i32, ptr }

; Function Attrs: inlinehint mustprogress nounwind uwtable
define internal noundef signext i8 @_ZL9U_FAILURE10UErrorCode(i32 noundef %0) #2 {
  %2 = alloca i32, align 4
  store i32 %0, ptr %2, align 4, !tbaa !11
  %3 = load i32, ptr %2, align 4, !tbaa !11
  %4 = icmp sgt i32 %3, 0
  %5 = zext i1 %4 to i8
  ret i8 %5
}

; Function Attrs: mustprogress uwtable
define i32 @ubidi_countRuns_77(ptr noundef %0, ptr noundef %1) #0 {
  %3 = alloca i32, align 4
  %4 = alloca ptr, align 8
  %5 = alloca ptr, align 8
  store ptr %0, ptr %4, align 8, !tbaa !3
  store ptr %1, ptr %5, align 8, !tbaa !10
  br label %6

6:                                                ; preds = %2
  %7 = load ptr, ptr %5, align 8, !tbaa !10
  %8 = icmp eq ptr %7, null
  br i1 %8, label %14, label %9

9:                                                ; preds = %6
  %10 = load ptr, ptr %5, align 8, !tbaa !10
  %11 = load i32, ptr %10, align 4, !tbaa !11
  %12 = call noundef signext i8 @_ZL9U_FAILURE10UErrorCode(i32 noundef %11)
  %13 = icmp ne i8 %12, 0
  br i1 %13, label %14, label %15

14:                                               ; preds = %9, %6
  store i32 -1, ptr %3, align 4
  br label %57

15:                                               ; preds = %9
  br label %16

16:                                               ; preds = %15
  br label %17

17:                                               ; preds = %16
  %18 = load ptr, ptr %4, align 8, !tbaa !3
  %19 = icmp ne ptr %18, null
  br i1 %19, label %20, label %41

20:                                               ; preds = %17
  %21 = load ptr, ptr %4, align 8, !tbaa !3
  %22 = getelementptr inbounds nuw %struct.UBiDi, ptr %21, i32 0, i32 0
  %23 = load ptr, ptr %22, align 8, !tbaa !13
  %24 = load ptr, ptr %4, align 8, !tbaa !3
  %25 = icmp eq ptr %23, %24
  br i1 %25, label %43, label %26

26:                                               ; preds = %20
  %27 = load ptr, ptr %4, align 8, !tbaa !3
  %28 = getelementptr inbounds nuw %struct.UBiDi, ptr %27, i32 0, i32 0
  %29 = load ptr, ptr %28, align 8, !tbaa !13
  %30 = icmp ne ptr %29, null
  br i1 %30, label %31, label %41

31:                                               ; preds = %26
  %32 = load ptr, ptr %4, align 8, !tbaa !3
  %33 = getelementptr inbounds nuw %struct.UBiDi, ptr %32, i32 0, i32 0
  %34 = load ptr, ptr %33, align 8, !tbaa !13
  %35 = getelementptr inbounds nuw %struct.UBiDi, ptr %34, i32 0, i32 0
  %36 = load ptr, ptr %35, align 8, !tbaa !13
  %37 = load ptr, ptr %4, align 8, !tbaa !3
  %38 = getelementptr inbounds nuw %struct.UBiDi, ptr %37, i32 0, i32 0
  %39 = load ptr, ptr %38, align 8, !tbaa !13
  %40 = icmp eq ptr %36, %39
  br i1 %40, label %43, label %41

41:                                               ; preds = %31, %26, %17
  %42 = load ptr, ptr %5, align 8, !tbaa !10
  store i32 27, ptr %42, align 4, !tbaa !11
  store i32 -1, ptr %3, align 4
  br label %57

43:                                               ; preds = %31, %20
  br label %44

44:                                               ; preds = %43
  %45 = load ptr, ptr %4, align 8, !tbaa !3
  %46 = load ptr, ptr %5, align 8, !tbaa !10
  %47 = call signext i8 @ubidi_getRuns_77(ptr noundef %45, ptr noundef %46)
  %48 = load ptr, ptr %5, align 8, !tbaa !10
  %49 = load i32, ptr %48, align 4, !tbaa !11
  %50 = call noundef signext i8 @_ZL9U_FAILURE10UErrorCode(i32 noundef %49)
  %51 = icmp ne i8 %50, 0
  br i1 %51, label %52, label %53

52:                                               ; preds = %44
  store i32 -1, ptr %3, align 4
  br label %57

53:                                               ; preds = %44
  %54 = load ptr, ptr %4, align 8, !tbaa !3
  %55 = getelementptr inbounds nuw %struct.UBiDi, ptr %54, i32 0, i32 39
  %56 = load i32, ptr %55, align 8, !tbaa !47
  store i32 %56, ptr %3, align 4
  br label %57

57:                                               ; preds = %53, %52, %41, %14
  %58 = load i32, ptr %3, align 4
  ret i32 %58
}

; Function Attrs: mustprogress uwtable
define void @ubidi_getLogicalRun_77(ptr noundef %0, i32 noundef %1, ptr noundef %2, ptr noundef %3) #0 {
  %5 = alloca ptr, align 8
  %6 = alloca i32, align 4
  %7 = alloca ptr, align 8
  %8 = alloca ptr, align 8
  %9 = alloca i32, align 4
  %10 = alloca i32, align 4
  %11 = alloca i32, align 4
  %12 = alloca i32, align 4
  %13 = alloca i32, align 4
  %14 = alloca i32, align 4
  %15 = alloca %struct.Run, align 4
  %16 = alloca i32, align 4
  store ptr %0, ptr %5, align 8, !tbaa !3
  store i32 %1, ptr %6, align 4, !tbaa !8
  store ptr %2, ptr %7, align 8, !tbaa !57
  store ptr %3, ptr %8, align 8, !tbaa !50
  call void @llvm.lifetime.start.p0(i64 4, ptr %9) #8
  call void @llvm.lifetime.start.p0(i64 4, ptr %10) #8
  call void @llvm.lifetime.start.p0(i64 4, ptr %11) #8
  call void @llvm.lifetime.start.p0(i64 4, ptr %12) #8
  call void @llvm.lifetime.start.p0(i64 4, ptr %13) #8
  call void @llvm.lifetime.start.p0(i64 4, ptr %14) #8
  call void @llvm.lifetime.start.p0(i64 12, ptr %15) #8
  store i32 0, ptr %9, align 4, !tbaa !11
  br label %17

17:                                               ; preds = %4
  %18 = load i32, ptr %6, align 4, !tbaa !8
  %19 = icmp slt i32 %18, 0
  br i1 %19, label %26, label %20

20:                                               ; preds = %17
  %21 = load i32, ptr %6, align 4, !tbaa !8
  %22 = load ptr, ptr %5, align 8, !tbaa !3
  %23 = getelementptr inbounds nuw %struct.UBiDi, ptr %22, i32 0, i32 3
  %24 = load i32, ptr %23, align 4, !tbaa !26
  %25 = icmp sge i32 %21, %24
  br i1 %25, label %26, label %27

26:                                               ; preds = %20, %17
  store i32 1, ptr %9, align 4, !tbaa !11
  store i32 1, ptr %16, align 4
  br label %145

27:                                               ; preds = %20
  br label %28

28:                                               ; preds = %27
  br label %29

29:                                               ; preds = %28
  %30 = load ptr, ptr %5, align 8, !tbaa !3
  %31 = call i32 @ubidi_countRuns_77(ptr noundef %30, ptr noundef %9)
  store i32 %31, ptr %10, align 4, !tbaa !8
  %32 = load i32, ptr %9, align 4, !tbaa !11
  %33 = call noundef signext i8 @_ZL9U_FAILURE10UErrorCode(i32 noundef %32)
  %34 = icmp ne i8 %33, 0
  br i1 %34, label %35, label %36

35:                                               ; preds = %29
  store i32 1, ptr %16, align 4
  br label %145

36:                                               ; preds = %29
  store i32 0, ptr %12, align 4, !tbaa !8
  store i32 0, ptr %11, align 4, !tbaa !8
  %37 = load ptr, ptr %5, align 8, !tbaa !3
  %38 = getelementptr inbounds nuw %struct.UBiDi, ptr %37, i32 0, i32 40
  %39 = load ptr, ptr %38, align 8, !tbaa !36
  %40 = getelementptr inbounds %struct.Run, ptr %39, i64 0
  call void @llvm.memcpy.p0.p0.i64(ptr align 4 %15, ptr align 4 %40, i64 12, i1 false), !tbaa.struct !59
  store i32 0, ptr %14, align 4, !tbaa !8
  br label %41

41:                                               ; preds = %74, %36
  %42 = load i32, ptr %14, align 4, !tbaa !8
  %43 = load i32, ptr %10, align 4, !tbaa !8
  %44 = icmp slt i32 %42, %43
  br i1 %44, label %45, label %77

45:                                               ; preds = %41
  %46 = load ptr, ptr %5, align 8, !tbaa !3
  %47 = getelementptr inbounds nuw %struct.UBiDi, ptr %46, i32 0, i32 40
  %48 = load ptr, ptr %47, align 8, !tbaa !36
  %49 = load i32, ptr %14, align 4, !tbaa !8
  %50 = sext i32 %49 to i64
  %51 = getelementptr inbounds %struct.Run, ptr %48, i64 %50
  call void @llvm.memcpy.p0.p0.i64(ptr align 4 %15, ptr align 4 %51, i64 12, i1 false), !tbaa.struct !59
  %52 = getelementptr inbounds nuw %struct.Run, ptr %15, i32 0, i32 0
  %53 = load i32, ptr %52, align 4, !tbaa !60
  %54 = sext i32 %53 to i64
  %55 = and i64 %54, -2147483649
  %56 = trunc i64 %55 to i32
  store i32 %56, ptr %13, align 4, !tbaa !8
  %57 = load i32, ptr %13, align 4, !tbaa !8
  %58 = getelementptr inbounds nuw %struct.Run, ptr %15, i32 0, i32 1
  %59 = load i32, ptr %58, align 4, !tbaa !62
  %60 = add nsw i32 %57, %59
  %61 = load i32, ptr %11, align 4, !tbaa !8
  %62 = sub nsw i32 %60, %61
  store i32 %62, ptr %12, align 4, !tbaa !8
  %63 = load i32, ptr %6, align 4, !tbaa !8
  %64 = load i32, ptr %13, align 4, !tbaa !8
  %65 = icmp sge i32 %63, %64
  br i1 %65, label %66, label %71

66:                                               ; preds = %45
  %67 = load i32, ptr %6, align 4, !tbaa !8
  %68 = load i32, ptr %12, align 4, !tbaa !8
  %69 = icmp slt i32 %67, %68
  br i1 %69, label %70, label %71

70:                                               ; preds = %66
  br label %77

71:                                               ; preds = %66, %45
  %72 = getelementptr inbounds nuw %struct.Run, ptr %15, i32 0, i32 1
  %73 = load i32, ptr %72, align 4, !tbaa !62
  store i32 %73, ptr %11, align 4, !tbaa !8
  br label %74

74:                                               ; preds = %71
  %75 = load i32, ptr %14, align 4, !tbaa !8
  %76 = add nsw i32 %75, 1
  store i32 %76, ptr %14, align 4, !tbaa !8
  br label %41, !llvm.loop !63

77:                                               ; preds = %70, %41
  %78 = load ptr, ptr %7, align 8, !tbaa !57
  %79 = icmp ne ptr %78, null
  br i1 %79, label %80, label %83

80:                                               ; preds = %77
  %81 = load i32, ptr %12, align 4, !tbaa !8
  %82 = load ptr, ptr %7, align 8, !tbaa !57
  store i32 %81, ptr %82, align 4, !tbaa !8
  br label %83

83:                                               ; preds = %80, %77
  %84 = load ptr, ptr %8, align 8, !tbaa !50
  %85 = icmp ne ptr %84, null
  br i1 %85, label %86, label %144

86:                                               ; preds = %83
  %87 = load ptr, ptr %5, align 8, !tbaa !3
  %88 = getelementptr inbounds nuw %struct.UBiDi, ptr %87, i32 0, i32 22
  %89 = load i32, ptr %88, align 4, !tbaa !38
  %90 = icmp eq i32 %89, 3
  br i1 %90, label %91, label %97

91:                                               ; preds = %86
  %92 = getelementptr inbounds nuw %struct.Run, ptr %15, i32 0, i32 0
  %93 = load i32, ptr %92, align 4, !tbaa !60
  %94 = lshr i32 %93, 31
  %95 = trunc i32 %94 to i8
  %96 = load ptr, ptr %8, align 8, !tbaa !50
  store i8 %95, ptr %96, align 1, !tbaa !51
  br label %143

97:                                               ; preds = %86
  %98 = load ptr, ptr %5, align 8, !tbaa !3
  %99 = getelementptr inbounds nuw %struct.UBiDi, ptr %98, i32 0, i32 32
  %100 = load i32, ptr %99, align 8, !tbaa !48
  %101 = icmp ne i32 %100, 2
  br i1 %101, label %108, label %102

102:                                              ; preds = %97
  %103 = load i32, ptr %6, align 4, !tbaa !8
  %104 = load ptr, ptr %5, align 8, !tbaa !3
  %105 = getelementptr inbounds nuw %struct.UBiDi, ptr %104, i32 0, i32 35
  %106 = load i32, ptr %105, align 4, !tbaa !49
  %107 = icmp sge i32 %103, %106
  br i1 %107, label %108, label %133

108:                                              ; preds = %102, %97
  %109 = load ptr, ptr %5, align 8, !tbaa !3
  %110 = getelementptr inbounds nuw %struct.UBiDi, ptr %109, i32 0, i32 26
  %111 = load i8, ptr %110, align 2, !tbaa !30
  %112 = icmp ne i8 %111, 0
  br i1 %112, label %113, label %122

113:                                              ; preds = %108
  %114 = load i32, ptr %6, align 4, !tbaa !8
  %115 = load ptr, ptr %5, align 8, !tbaa !3
  %116 = getelementptr inbounds nuw %struct.UBiDi, ptr %115, i32 0, i32 37
  %117 = load ptr, ptr %116, align 8, !tbaa !31
  %118 = getelementptr inbounds %struct.Para, ptr %117, i64 0
  %119 = getelementptr inbounds nuw %struct.Para, ptr %118, i32 0, i32 0
  %120 = load i32, ptr %119, align 4, !tbaa !32
  %121 = icmp slt i32 %114, %120
  br i1 %121, label %122, label %126

122:                                              ; preds = %113, %108
  %123 = load ptr, ptr %5, align 8, !tbaa !3
  %124 = getelementptr inbounds nuw %struct.UBiDi, ptr %123, i32 0, i32 25
  %125 = load i8, ptr %124, align 1, !tbaa !34
  br label %130

126:                                              ; preds = %113
  %127 = load ptr, ptr %5, align 8, !tbaa !3
  %128 = load i32, ptr %6, align 4, !tbaa !8
  %129 = call zeroext i8 @ubidi_getParaLevelAtIndex_77(ptr noundef %127, i32 noundef %128)
  br label %130

130:                                              ; preds = %126, %122
  %131 = phi i8 [ %125, %122 ], [ %129, %126 ]
  %132 = load ptr, ptr %8, align 8, !tbaa !50
  store i8 %131, ptr %132, align 1, !tbaa !51
  br label %142

133:                                              ; preds = %102
  %134 = load ptr, ptr %5, align 8, !tbaa !3
  %135 = getelementptr inbounds nuw %struct.UBiDi, ptr %134, i32 0, i32 20
  %136 = load ptr, ptr %135, align 8, !tbaa !46
  %137 = load i32, ptr %6, align 4, !tbaa !8
  %138 = sext i32 %137 to i64
  %139 = getelementptr inbounds i8, ptr %136, i64 %138
  %140 = load i8, ptr %139, align 1, !tbaa !51
  %141 = load ptr, ptr %8, align 8, !tbaa !50
  store i8 %140, ptr %141, align 1, !tbaa !51
  br label %142

142:                                              ; preds = %133, %130
  br label %143

143:                                              ; preds = %142, %91
  br label %144

144:                                              ; preds = %143, %83
  store i32 0, ptr %16, align 4
  br label %145

145:                                              ; preds = %144, %35, %26
  call void @llvm.lifetime.end.p0(i64 12, ptr %15) #8
  call void @llvm.lifetime.end.p0(i64 4, ptr %14) #8
  call void @llvm.lifetime.end.p0(i64 4, ptr %13) #8
  call void @llvm.lifetime.end.p0(i64 4, ptr %12) #8
  call void @llvm.lifetime.end.p0(i64 4, ptr %11) #8
  call void @llvm.lifetime.end.p0(i64 4, ptr %10) #8
  call void @llvm.lifetime.end.p0(i64 4, ptr %9) #8
  %146 = load i32, ptr %16, align 4
  switch i32 %146, label %148 [
    i32 0, label %147
    i32 1, label %147
  ]

147:                                              ; preds = %145, %145
  ret void

148:                                              ; preds = %145
  unreachable
}