; Function Attrs: mustprogress uwtable
define void @ubidi_getLogicalRun_77(ptr noundef %0, i32 noundef %1, ptr noundef writeonly %2, ptr noundef writeonly %3) local_unnamed_addr #0 {
  %5 = icmp slt i32 %1, 0
  br i1 %5, label %ubidi_countRuns_77.exit, label %6

6:                                                ; preds = %4
  %7 = getelementptr inbounds nuw i8, ptr %0, i64 20
  %8 = load i32, ptr %7, align 4, !tbaa !23
  %.not = icmp slt i32 %1, %8
  br i1 %.not, label %9, label %ubidi_countRuns_77.exit

9:                                                ; preds = %6
  %10 = load ptr, ptr %0, align 8, !tbaa !7
  %11 = icmp eq ptr %10, %0
  br i1 %11, label %16, label %12

12:                                               ; preds = %9
  %.not17.i = icmp eq ptr %10, null
  br i1 %.not17.i, label %ubidi_countRuns_77.exit, label %13

13:                                               ; preds = %12
  %14 = load ptr, ptr %10, align 8, !tbaa !7
  %15 = icmp eq ptr %14, %10
  br i1 %15, label %16, label %ubidi_countRuns_77.exit

16:                                               ; preds = %13, %9
  %17 = tail call signext i8 @ubidi_getRuns_77(ptr noundef nonnull %0, ptr nonnull poison)
  %18 = getelementptr inbounds nuw i8, ptr %0, i64 296
  %19 = load i32, ptr %18, align 8, !tbaa !44
  %20 = getelementptr inbounds nuw i8, ptr %0, i64 304
  %21 = load ptr, ptr %20, align 8, !tbaa !33
  %.sroa.0.0.copyload = load i32, ptr %21, align 4, !tbaa !53
  %22 = icmp sgt i32 %19, 0
  br i1 %22, label %.lr.ph.preheader, label %._crit_edge

.lr.ph.preheader:                                 ; preds = %16
  %wide.trip.count = zext nneg i32 %19 to i64
  br label %.lr.ph

.lr.ph:                                           ; preds = %.lr.ph, %.lr.ph.preheader
  %indvars.iv = phi i64 [ 0, %.lr.ph.preheader ], [ %indvars.iv.next, %.lr.ph ]
  %.04157 = phi i32 [ 0, %.lr.ph.preheader ], [ %.sroa.6.0.copyload4, %.lr.ph ]
  %23 = getelementptr inbounds nuw %struct.Run, ptr %21, i64 %indvars.iv
  %.sroa.0.0.copyload2 = load i32, ptr %23, align 4, !tbaa !53
  %.sroa.6.0..sroa_idx3 = getelementptr inbounds nuw i8, ptr %23, i64 4
  %.sroa.6.0.copyload4 = load i32, ptr %.sroa.6.0..sroa_idx3, align 4, !tbaa !53
  %24 = and i32 %.sroa.0.0.copyload2, 2147483647
  %25 = sub i32 %.sroa.6.0.copyload4, %.04157
  %26 = add i32 %25, %24
  %.not48 = icmp sge i32 %1, %24
  %27 = icmp slt i32 %1, %26
  %or.cond = select i1 %.not48, i1 %27, i1 false
  %indvars.iv.next = add nuw nsw i64 %indvars.iv, 1
  %exitcond.not = icmp eq i64 %indvars.iv.next, %wide.trip.count
  %or.cond64 = select i1 %or.cond, i1 true, i1 %exitcond.not
  br i1 %or.cond64, label %._crit_edge, label %.lr.ph, !llvm.loop !54

._crit_edge:                                      ; preds = %.lr.ph, %16
  %.1 = phi i32 [ 0, %16 ], [ %26, %.lr.ph ]
  %.sroa.0.1 = phi i32 [ %.sroa.0.0.copyload, %16 ], [ %.sroa.0.0.copyload2, %.lr.ph ]
  %.not49 = icmp eq ptr %2, null
  br i1 %.not49, label %29, label %28

28:                                               ; preds = %._crit_edge
  store i32 %.1, ptr %2, align 4, !tbaa !53
  br label %29

29:                                               ; preds = %28, %._crit_edge
  %.not50 = icmp eq ptr %3, null
  br i1 %.not50, label %ubidi_countRuns_77.exit, label %30

30:                                               ; preds = %29
  %31 = getelementptr inbounds nuw i8, ptr %0, i64 132
  %32 = load i32, ptr %31, align 4, !tbaa !35
  %33 = icmp eq i32 %32, 3
  br i1 %33, label %34, label %37

34:                                               ; preds = %30
  %35 = lshr i32 %.sroa.0.1, 31
  %36 = trunc nuw nsw i32 %35 to i8
  br label %ubidi_countRuns_77.exit.sink.split

37:                                               ; preds = %30
  %38 = getelementptr inbounds nuw i8, ptr %0, i64 184
  %39 = load i32, ptr %38, align 8, !tbaa !45
  %.not51 = icmp eq i32 %39, 2
  br i1 %.not51, label %40, label %43

40:                                               ; preds = %37
  %41 = getelementptr inbounds nuw i8, ptr %0, i64 196
  %42 = load i32, ptr %41, align 4, !tbaa !46
  %.not52 = icmp slt i32 %1, %42
  br i1 %.not52, label %56, label %43

43:                                               ; preds = %40, %37
  %44 = getelementptr inbounds nuw i8, ptr %0, i64 142
  %45 = load i8, ptr %44, align 2, !tbaa !27
  %.not53 = icmp eq i8 %45, 0
  br i1 %.not53, label %51, label %46

46:                                               ; preds = %43
  %47 = getelementptr inbounds nuw i8, ptr %0, i64 208
  %48 = load ptr, ptr %47, align 8, !tbaa !28
  %49 = load i32, ptr %48, align 4, !tbaa !29
  %50 = icmp slt i32 %1, %49
  br i1 %50, label %51, label %54

51:                                               ; preds = %46, %43
  %52 = getelementptr inbounds nuw i8, ptr %0, i64 141
  %53 = load i8, ptr %52, align 1, !tbaa !31
  br label %ubidi_countRuns_77.exit.sink.split

54:                                               ; preds = %46
  %55 = tail call zeroext i8 @ubidi_getParaLevelAtIndex_77(ptr noundef nonnull %0, i32 noundef %1)
  br label %ubidi_countRuns_77.exit.sink.split

56:                                               ; preds = %40
  %57 = getelementptr inbounds nuw i8, ptr %0, i64 120
  %58 = load ptr, ptr %57, align 8, !tbaa !43
  %59 = zext nneg i32 %1 to i64
  %60 = getelementptr inbounds nuw i8, ptr %58, i64 %59
  %61 = load i8, ptr %60, align 1, !tbaa !47
  br label %ubidi_countRuns_77.exit.sink.split

ubidi_countRuns_77.exit.sink.split:               ; preds = %51, %54, %34, %56
  %.sink = phi i8 [ %61, %56 ], [ %36, %34 ], [ %53, %51 ], [ %55, %54 ]
  store i8 %.sink, ptr %3, align 1, !tbaa !47
  br label %ubidi_countRuns_77.exit

ubidi_countRuns_77.exit:                          ; preds = %ubidi_countRuns_77.exit.sink.split, %13, %12, %4, %6, %29
  ret void
}